; Function Attrs: nounwind uwtable
define noalias nonnull ptr @l_Lean_Meta_SimpTheorems_addDeclToUnfold___lambda__1(ptr noundef %0, ptr noundef readnone captures(none) %1, ptr noundef readnone captures(none) %2, ptr noundef readnone captures(none) %3, ptr noundef readnone captures(none) %4, ptr noundef readnone captures(none) %5, ptr noundef %6) local_unnamed_addr #1 {
  tail call void @lean_inc_heartbeat() #6
  %8 = tail call noalias ptr @mi_malloc_small(i64 noundef 24) #6
  %9 = icmp eq ptr %8, null
  br i1 %9, label %10, label %lean_alloc_ctor.exit

10:                                               ; preds = %7
  tail call void @lean_internal_panic_out_of_memory() #7
  unreachable

lean_alloc_ctor.exit:                             ; preds = %7
  %11 = getelementptr inbounds nuw i8, ptr %8, i64 4
  store i32 1, ptr %8, align 4, !tbaa !4
  store i32 131096, ptr %11, align 4
  %12 = getelementptr inbounds nuw i8, ptr %8, i64 8
  store ptr %0, ptr %12, align 8, !tbaa !9
  %13 = getelementptr inbounds nuw i8, ptr %8, i64 16
  store ptr %6, ptr %13, align 8, !tbaa !9
  ret ptr %8
}